target datalayout = "e-m:e-p270:32:32-p271:32:32-p272:64:64-i64:64-i128:128-f80:128-n8:16:32:64-S128"
target triple = "x86_64-pc-linux-gnu"

@.str.10 = private unnamed_addr constant [2 x i8] c"\0A\00", align 1
@.str.49 = private unnamed_addr constant [2 x i8] c" \00", align 1
@.str.52 = private unnamed_addr constant [5 x i8] c"%s%d\00", align 1
@.str.53 = private unnamed_addr constant [1 x i8] zeroinitializer, align 1

; Function Attrs: nounwind uwtable
define void @Gia_ManPrintRelMinterm(i32 noundef %0, i32 noundef %1, i32 noundef %2) #0 {
  %4 = alloca i32, align 4
  %5 = alloca i32, align 4
  %6 = alloca i32, align 4
  %7 = alloca i32, align 4
  store i32 %0, ptr %4, align 4, !tbaa !8
  store i32 %1, ptr %5, align 4, !tbaa !8
  store i32 %2, ptr %6, align 4, !tbaa !8
  call void @llvm.lifetime.start.p0(i64 4, ptr %7) #14
  store i32 0, ptr %7, align 4, !tbaa !8
  br label %8

8:                                                ; preds = %26, %3
  %9 = load i32, ptr %7, align 4, !tbaa !8
  %10 = load i32, ptr %6, align 4, !tbaa !8
  %11 = icmp slt i32 %9, %10
  br i1 %11, label %13, label %12

12:                                               ; preds = %8
  call void @llvm.lifetime.end.p0(i64 4, ptr %7) #14
  br label %29

13:                                               ; preds = %8
  %14 = load i32, ptr %7, align 4, !tbaa !8
  %15 = load i32, ptr %5, align 4, !tbaa !8
  %16 = icmp eq i32 %14, %15
  %17 = select i1 %16, ptr @.str.49, ptr @.str.53
  %18 = load i32, ptr %4, align 4, !tbaa !8
  %19 = load i32, ptr %6, align 4, !tbaa !8
  %20 = sub nsw i32 %19, 1
  %21 = load i32, ptr %7, align 4, !tbaa !8
  %22 = sub nsw i32 %20, %21
  %23 = ashr i32 %18, %22
  %24 = and i32 %23, 1
  %25 = call i32 (ptr, ...) @printf(ptr noundef @.str.52, ptr noundef %17, i32 noundef %24)
  br label %26

26:                                               ; preds = %13
  %27 = load i32, ptr %7, align 4, !tbaa !8
  %28 = add nsw i32 %27, 1
  store i32 %28, ptr %7, align 4, !tbaa !8
  br label %8, !llvm.loop !204

29:                                               ; preds = %12
  %30 = call i32 (ptr, ...) @printf(ptr noundef @.str.10)
  ret void
}