; Function Attrs: nofree nounwind uwtable
define void @Gia_ManPrintRelMinterm(i32 noundef %0, i32 noundef %1, i32 noundef %2) local_unnamed_addr #15 {
  %4 = icmp sgt i32 %2, 0
  br i1 %4, label %.lr.ph, label %._crit_edge

._crit_edge:                                      ; preds = %.lr.ph, %3
  %putchar = tail call i32 @putchar(i32 10)
  ret void

.lr.ph:                                           ; preds = %3, %.lr.ph
  %.09 = phi i32 [ %12, %.lr.ph ], [ 0, %3 ]
  %5 = icmp eq i32 %.09, %1
  %6 = select i1 %5, ptr @.str.49, ptr @.str.53
  %7 = xor i32 %.09, -1
  %8 = add nsw i32 %2, %7
  %9 = lshr i32 %0, %8
  %10 = and i32 %9, 1
  %11 = tail call i32 (ptr, ...) @printf(ptr noundef nonnull dereferenceable(1) @.str.52, ptr noundef nonnull %6, i32 noundef %10)
  %12 = add nuw nsw i32 %.09, 1
  %exitcond.not = icmp eq i32 %12, %2
  br i1 %exitcond.not, label %._crit_edge, label %.lr.ph, !llvm.loop !189
}